target datalayout = "e-m:e-p270:32:32-p271:32:32-p272:64:64-i64:64-i128:128-f80:128-n8:16:32:64-S128"
target triple = "x86_64-pc-linux-gnu"

%struct.__va_list_tag = type { i32, i32, ptr, ptr }
%"class.tinyxml2::XMLPrinter" = type { %"class.tinyxml2::XMLVisitor", i8, %"class.tinyxml2::DynArray.7", i8, ptr, i32, i32, i8, i8, [64 x i8], [64 x i8], [6 x i8], %"class.tinyxml2::DynArray.8" }
%"class.tinyxml2::XMLVisitor" = type { ptr }
%"class.tinyxml2::DynArray.7" = type { ptr, [10 x ptr], i32, i32 }
%"class.tinyxml2::DynArray.8" = type <{ ptr, [20 x i8], i32, i32, [4 x i8] }>

; Function Attrs: mustprogress uwtable
define linkonce_odr hidden void @_ZN8tinyxml28DynArrayIcLi20EE14EnsureCapacityEi(ptr noundef nonnull align 8 dereferenceable(36) %0, i32 noundef %1) #2 comdat align 2 {
  %3 = alloca ptr, align 8
  %4 = alloca i32, align 4
  %5 = alloca i32, align 4
  %6 = alloca ptr, align 8
  store ptr %0, ptr %3, align 8, !tbaa !225
  store i32 %1, ptr %4, align 4, !tbaa !15
  %7 = load ptr, ptr %3, align 8
  %8 = load i32, ptr %4, align 4, !tbaa !15
  %9 = getelementptr inbounds nuw %"class.tinyxml2::DynArray.8", ptr %7, i32 0, i32 2
  %10 = load i32, ptr %9, align 4, !tbaa !228
  %11 = icmp sgt i32 %8, %10
  br i1 %11, label %12, label %41

12:                                               ; preds = %2
  call void @llvm.lifetime.start.p0(i64 4, ptr %5) #18
  %13 = load i32, ptr %4, align 4, !tbaa !15
  %14 = mul nsw i32 %13, 2
  store i32 %14, ptr %5, align 4, !tbaa !15
  call void @llvm.lifetime.start.p0(i64 8, ptr %6) #18
  %15 = load i32, ptr %5, align 4, !tbaa !15
  %16 = sext i32 %15 to i64
  %17 = call noalias noundef nonnull ptr @_Znam(i64 noundef %16) #20
  store ptr %17, ptr %6, align 8, !tbaa !14
  %18 = load ptr, ptr %6, align 8, !tbaa !14
  %19 = getelementptr inbounds nuw %"class.tinyxml2::DynArray.8", ptr %7, i32 0, i32 0
  %20 = load ptr, ptr %19, align 8, !tbaa !227
  %21 = getelementptr inbounds nuw %"class.tinyxml2::DynArray.8", ptr %7, i32 0, i32 3
  %22 = load i32, ptr %21, align 8, !tbaa !229
  %23 = sext i32 %22 to i64
  %24 = mul i64 1, %23
  call void @llvm.memcpy.p0.p0.i64(ptr align 1 %18, ptr align 1 %20, i64 %24, i1 false)
  %25 = getelementptr inbounds nuw %"class.tinyxml2::DynArray.8", ptr %7, i32 0, i32 0
  %26 = load ptr, ptr %25, align 8, !tbaa !227
  %27 = getelementptr inbounds nuw %"class.tinyxml2::DynArray.8", ptr %7, i32 0, i32 1
  %28 = getelementptr inbounds [20 x i8], ptr %27, i64 0, i64 0
  %29 = icmp ne ptr %26, %28
  br i1 %29, label %30, label %36

30:                                               ; preds = %12
  %31 = getelementptr inbounds nuw %"class.tinyxml2::DynArray.8", ptr %7, i32 0, i32 0
  %32 = load ptr, ptr %31, align 8, !tbaa !227
  %33 = icmp eq ptr %32, null
  br i1 %33, label %35, label %34

34:                                               ; preds = %30
  call void @_ZdaPv(ptr noundef %32) #17
  br label %35

35:                                               ; preds = %34, %30
  br label %36

36:                                               ; preds = %35, %12
  %37 = load ptr, ptr %6, align 8, !tbaa !14
  %38 = getelementptr inbounds nuw %"class.tinyxml2::DynArray.8", ptr %7, i32 0, i32 0
  store ptr %37, ptr %38, align 8, !tbaa !227
  %39 = load i32, ptr %5, align 4, !tbaa !15
  %40 = getelementptr inbounds nuw %"class.tinyxml2::DynArray.8", ptr %7, i32 0, i32 2
  store i32 %39, ptr %40, align 4, !tbaa !228
  call void @llvm.lifetime.end.p0(i64 8, ptr %6) #18
  call void @llvm.lifetime.end.p0(i64 4, ptr %5) #18
  br label %41

41:                                               ; preds = %36, %2
  ret void
}

; Function Attrs: mustprogress uwtable
define linkonce_odr hidden noundef ptr @_ZN8tinyxml28DynArrayIcLi20EE7PushArrEi(ptr noundef nonnull align 8 dereferenceable(36) %0, i32 noundef %1) #2 comdat align 2 {
  %3 = alloca ptr, align 8
  %4 = alloca i32, align 4
  %5 = alloca ptr, align 8
  store ptr %0, ptr %3, align 8, !tbaa !225
  store i32 %1, ptr %4, align 4, !tbaa !15
  %6 = load ptr, ptr %3, align 8
  %7 = getelementptr inbounds nuw %"class.tinyxml2::DynArray.8", ptr %6, i32 0, i32 3
  %8 = load i32, ptr %7, align 8, !tbaa !229
  %9 = load i32, ptr %4, align 4, !tbaa !15
  %10 = add nsw i32 %8, %9
  call void @_ZN8tinyxml28DynArrayIcLi20EE14EnsureCapacityEi(ptr noundef nonnull align 8 dereferenceable(36) %6, i32 noundef %10)
  call void @llvm.lifetime.start.p0(i64 8, ptr %5) #18
  %11 = getelementptr inbounds nuw %"class.tinyxml2::DynArray.8", ptr %6, i32 0, i32 0
  %12 = load ptr, ptr %11, align 8, !tbaa !227
  %13 = getelementptr inbounds nuw %"class.tinyxml2::DynArray.8", ptr %6, i32 0, i32 3
  %14 = load i32, ptr %13, align 8, !tbaa !229
  %15 = sext i32 %14 to i64
  %16 = getelementptr inbounds i8, ptr %12, i64 %15
  store ptr %16, ptr %5, align 8, !tbaa !14
  %17 = load i32, ptr %4, align 4, !tbaa !15
  %18 = getelementptr inbounds nuw %"class.tinyxml2::DynArray.8", ptr %6, i32 0, i32 3
  %19 = load i32, ptr %18, align 8, !tbaa !229
  %20 = add nsw i32 %19, %17
  store i32 %20, ptr %18, align 8, !tbaa !229
  %21 = load ptr, ptr %5, align 8, !tbaa !14
  call void @llvm.lifetime.end.p0(i64 8, ptr %5) #18
  ret ptr %21
}

; Function Attrs: inlinehint mustprogress nounwind uwtable
define internal noundef i32 @_ZL15TIXML_VSCPRINTFPKcP13__va_list_tag(ptr noundef %0, ptr noundef %1) #8 {
  %3 = alloca ptr, align 8
  %4 = alloca ptr, align 8
  %5 = alloca i32, align 4
  store ptr %0, ptr %3, align 8, !tbaa !14
  store ptr %1, ptr %4, align 8, !tbaa !230
  call void @llvm.lifetime.start.p0(i64 4, ptr %5) #18
  %6 = load ptr, ptr %3, align 8, !tbaa !14
  %7 = load ptr, ptr %4, align 8, !tbaa !230
  %8 = call i32 @vsnprintf(ptr noundef null, i64 noundef 0, ptr noundef %6, ptr noundef %7) #18
  store i32 %8, ptr %5, align 4, !tbaa !15
  %9 = load i32, ptr %5, align 4, !tbaa !15
  call void @llvm.lifetime.end.p0(i64 4, ptr %5) #18
  ret i32 %9
}

; Function Attrs: mustprogress uwtable
define void @_ZN8tinyxml210XMLPrinter5PrintEPKcz(ptr noundef nonnull align 8 dereferenceable(312) %0, ptr noundef %1, ...) unnamed_addr #2 align 2 {
  %3 = alloca ptr, align 8
  %4 = alloca ptr, align 8
  %5 = alloca [1 x %struct.__va_list_tag], align 16
  %6 = alloca i32, align 4
  %7 = alloca ptr, align 8
  store ptr %0, ptr %3, align 8, !tbaa !194
  store ptr %1, ptr %4, align 8, !tbaa !14
  %8 = load ptr, ptr %3, align 8
  call void @llvm.lifetime.start.p0(i64 24, ptr %5) #18
  %9 = getelementptr inbounds [1 x %struct.__va_list_tag], ptr %5, i64 0, i64 0
  call void @llvm.va_start.p0(ptr %9)
  %10 = getelementptr inbounds nuw %"class.tinyxml2::XMLPrinter", ptr %8, i32 0, i32 4
  %11 = load ptr, ptr %10, align 8, !tbaa !213
  %12 = icmp ne ptr %11, null
  br i1 %12, label %13, label %19

13:                                               ; preds = %2
  %14 = getelementptr inbounds nuw %"class.tinyxml2::XMLPrinter", ptr %8, i32 0, i32 4
  %15 = load ptr, ptr %14, align 8, !tbaa !213
  %16 = load ptr, ptr %4, align 8, !tbaa !14
  %17 = getelementptr inbounds [1 x %struct.__va_list_tag], ptr %5, i64 0, i64 0
  %18 = call i32 @vfprintf(ptr noundef %15, ptr noundef %16, ptr noundef %17) #18
  br label %36

19:                                               ; preds = %2
  call void @llvm.lifetime.start.p0(i64 4, ptr %6) #18
  %20 = load ptr, ptr %4, align 8, !tbaa !14
  %21 = getelementptr inbounds [1 x %struct.__va_list_tag], ptr %5, i64 0, i64 0
  %22 = call noundef i32 @_ZL15TIXML_VSCPRINTFPKcP13__va_list_tag(ptr noundef %20, ptr noundef %21)
  store i32 %22, ptr %6, align 4, !tbaa !15
  %23 = getelementptr inbounds [1 x %struct.__va_list_tag], ptr %5, i64 0, i64 0
  call void @llvm.va_end.p0(ptr %23)
  %24 = getelementptr inbounds [1 x %struct.__va_list_tag], ptr %5, i64 0, i64 0
  call void @llvm.va_start.p0(ptr %24)
  call void @llvm.lifetime.start.p0(i64 8, ptr %7) #18
  %25 = getelementptr inbounds nuw %"class.tinyxml2::XMLPrinter", ptr %8, i32 0, i32 12
  %26 = load i32, ptr %6, align 4, !tbaa !15
  %27 = call noundef ptr @_ZN8tinyxml28DynArrayIcLi20EE7PushArrEi(ptr noundef nonnull align 8 dereferenceable(36) %25, i32 noundef %26)
  %28 = getelementptr inbounds i8, ptr %27, i64 -1
  store ptr %28, ptr %7, align 8, !tbaa !14
  %29 = load ptr, ptr %7, align 8, !tbaa !14
  %30 = load i32, ptr %6, align 4, !tbaa !15
  %31 = add nsw i32 %30, 1
  %32 = sext i32 %31 to i64
  %33 = load ptr, ptr %4, align 8, !tbaa !14
  %34 = getelementptr inbounds [1 x %struct.__va_list_tag], ptr %5, i64 0, i64 0
  %35 = call i32 @vsnprintf(ptr noundef %29, i64 noundef %32, ptr noundef %33, ptr noundef %34) #18
  call void @llvm.lifetime.end.p0(i64 8, ptr %7) #18
  call void @llvm.lifetime.end.p0(i64 4, ptr %6) #18
  br label %36

36:                                               ; preds = %19, %13
  %37 = getelementptr inbounds [1 x %struct.__va_list_tag], ptr %5, i64 0, i64 0
  call void @llvm.va_end.p0(ptr %37)
  call void @llvm.lifetime.end.p0(i64 24, ptr %5) #18
  ret void
}