; Function Attrs: mustprogress uwtable
define void @_ZN8tinyxml210XMLPrinter5PrintEPKcz(ptr noundef nonnull align 8 captures(address) dereferenceable(312) %0, ptr noundef readonly captures(none) %1, ...) unnamed_addr #4 align 2 {
  %3 = alloca [1 x %struct.__va_list_tag], align 16
  call void @llvm.lifetime.start.p0(i64 24, ptr nonnull %3) #31
  call void @llvm.va_start.p0(ptr nonnull %3)
  %4 = getelementptr inbounds nuw i8, ptr %0, i64 120
  %5 = load ptr, ptr %4, align 8, !tbaa !163
  %.not = icmp eq ptr %5, null
  br i1 %.not, label %8, label %6

6:                                                ; preds = %2
  %7 = call i32 @vfprintf(ptr noundef nonnull %5, ptr noundef %1, ptr noundef nonnull %3) #31
  br label %35

8:                                                ; preds = %2
  %9 = call noundef i32 @vsnprintf(ptr noundef null, i64 noundef 0, ptr noundef readonly %1, ptr noundef nonnull %3) #31
  call void @llvm.va_end.p0(ptr nonnull %3)
  call void @llvm.va_start.p0(ptr nonnull %3)
  %10 = getelementptr inbounds nuw i8, ptr %0, i64 272
  %11 = getelementptr inbounds nuw i8, ptr %0, i64 304
  %12 = load i32, ptr %11, align 8, !tbaa !170
  %13 = add nsw i32 %12, %9
  %14 = getelementptr inbounds nuw i8, ptr %0, i64 300
  %15 = load i32, ptr %14, align 4, !tbaa !168
  %16 = icmp sgt i32 %13, %15
  br i1 %16, label %17, label %._ZN8tinyxml28DynArrayIcLi20EE14EnsureCapacityEi.exit_crit_edge.i

._ZN8tinyxml28DynArrayIcLi20EE14EnsureCapacityEi.exit_crit_edge.i: ; preds = %8
  %.pre.i = load ptr, ptr %10, align 8, !tbaa !150
  br label %_ZN8tinyxml28DynArrayIcLi20EE7PushArrEi.exit

17:                                               ; preds = %8
  %18 = shl nsw i32 %13, 1
  %19 = sext i32 %18 to i64
  %20 = call noalias noundef nonnull ptr @_Znam(i64 noundef %19) #34
  %21 = load ptr, ptr %10, align 8, !tbaa !150
  %22 = sext i32 %12 to i64
  call void @llvm.memcpy.p0.p0.i64(ptr nonnull align 1 %20, ptr align 1 %21, i64 %22, i1 false)
  %23 = getelementptr inbounds nuw i8, ptr %0, i64 280
  %.not.i.i = icmp eq ptr %21, %23
  %24 = icmp eq ptr %21, null
  %or.cond.i.i = or i1 %.not.i.i, %24
  br i1 %or.cond.i.i, label %26, label %25

25:                                               ; preds = %17
  call void @_ZdaPv(ptr noundef nonnull %21) #30
  %.pre3.pre.i = load i32, ptr %11, align 8, !tbaa !170
  %.pre6.i = add nsw i32 %.pre3.pre.i, %9
  br label %26

26:                                               ; preds = %25, %17
  %.pre5.pre-phi.i = phi i32 [ %.pre6.i, %25 ], [ %13, %17 ]
  %.pre3.i = phi i32 [ %.pre3.pre.i, %25 ], [ %12, %17 ]
  store ptr %20, ptr %10, align 8, !tbaa !150
  store i32 %18, ptr %14, align 4, !tbaa !168
  br label %_ZN8tinyxml28DynArrayIcLi20EE7PushArrEi.exit

_ZN8tinyxml28DynArrayIcLi20EE7PushArrEi.exit:     ; preds = %._ZN8tinyxml28DynArrayIcLi20EE14EnsureCapacityEi.exit_crit_edge.i, %26
  %.pre-phi.i = phi i32 [ %13, %._ZN8tinyxml28DynArrayIcLi20EE14EnsureCapacityEi.exit_crit_edge.i ], [ %.pre5.pre-phi.i, %26 ]
  %27 = phi i32 [ %12, %._ZN8tinyxml28DynArrayIcLi20EE14EnsureCapacityEi.exit_crit_edge.i ], [ %.pre3.i, %26 ]
  %28 = phi ptr [ %.pre.i, %._ZN8tinyxml28DynArrayIcLi20EE14EnsureCapacityEi.exit_crit_edge.i ], [ %20, %26 ]
  %29 = sext i32 %27 to i64
  %30 = getelementptr inbounds i8, ptr %28, i64 %29
  store i32 %.pre-phi.i, ptr %11, align 8, !tbaa !170
  %31 = getelementptr inbounds i8, ptr %30, i64 -1
  %32 = add nsw i32 %9, 1
  %33 = sext i32 %32 to i64
  %34 = call i32 @vsnprintf(ptr noundef nonnull %31, i64 noundef %33, ptr noundef %1, ptr noundef nonnull %3) #31
  br label %35

35:                                               ; preds = %_ZN8tinyxml28DynArrayIcLi20EE7PushArrEi.exit, %6
  call void @llvm.va_end.p0(ptr nonnull %3)
  call void @llvm.lifetime.end.p0(i64 24, ptr nonnull %3) #31
  ret void
}